target datalayout = "e-m:e-p270:32:32-p271:32:32-p272:64:64-i64:64-i128:128-f80:128-n8:16:32:64-S128"
target triple = "x86_64-pc-linux-gnu"

%struct.asn1_string_st = type { i32, i32, ptr, i64 }
%struct.x509_revoked_st = type { %struct.asn1_string_st, ptr, ptr, ptr, i32, i32 }

; Function Attrs: nounwind uwtable
define i32 @X509_REVOKED_set_serialNumber(ptr noundef %0, ptr noundef %1) #0 {
  %3 = alloca i32, align 4
  %4 = alloca ptr, align 8
  %5 = alloca ptr, align 8
  %6 = alloca ptr, align 8
  %7 = alloca i32, align 4
  store ptr %0, ptr %4, align 8, !tbaa !35
  store ptr %1, ptr %5, align 8, !tbaa !32
  call void @llvm.lifetime.start.p0(i64 8, ptr %6) #4
  %8 = load ptr, ptr %4, align 8, !tbaa !35
  %9 = icmp eq ptr %8, null
  br i1 %9, label %10, label %11

10:                                               ; preds = %2
  store i32 0, ptr %3, align 4
  store i32 1, ptr %7, align 4
  br label %22

11:                                               ; preds = %2
  %12 = load ptr, ptr %4, align 8, !tbaa !35
  %13 = getelementptr inbounds nuw %struct.x509_revoked_st, ptr %12, i32 0, i32 0
  store ptr %13, ptr %6, align 8, !tbaa !32
  %14 = load ptr, ptr %6, align 8, !tbaa !32
  %15 = load ptr, ptr %5, align 8, !tbaa !32
  %16 = icmp ne ptr %14, %15
  br i1 %16, label %17, label %21

17:                                               ; preds = %11
  %18 = load ptr, ptr %6, align 8, !tbaa !32
  %19 = load ptr, ptr %5, align 8, !tbaa !32
  %20 = call i32 @ASN1_STRING_copy(ptr noundef %18, ptr noundef %19)
  store i32 %20, ptr %3, align 4
  store i32 1, ptr %7, align 4
  br label %22

21:                                               ; preds = %11
  store i32 1, ptr %3, align 4
  store i32 1, ptr %7, align 4
  br label %22

22:                                               ; preds = %21, %17, %10
  call void @llvm.lifetime.end.p0(i64 8, ptr %6) #4
  %23 = load i32, ptr %3, align 4
  ret i32 %23
}