; Function Attrs: nounwind uwtable
define i32 @X509_REVOKED_set_serialNumber(ptr noundef %0, ptr noundef %1) local_unnamed_addr #0 {
  %3 = icmp eq ptr %0, null
  br i1 %3, label %7, label %4

4:                                                ; preds = %2
  %.not = icmp eq ptr %0, %1
  br i1 %.not, label %7, label %5

5:                                                ; preds = %4
  %6 = tail call i32 @ASN1_STRING_copy(ptr noundef nonnull %0, ptr noundef %1) #6
  br label %7

7:                                                ; preds = %4, %2, %5
  %.0 = phi i32 [ %6, %5 ], [ 0, %2 ], [ 1, %4 ]
  ret i32 %.0
}